(lp0
S'poi'
p1
aS'salary'
p2
aS'total_payments'
p3
aS'exercised_stock_options'
p4
aS'bonus'
p5
aS'restricted_stock'
p6
aS'shared_receipt_with_poi'
p7
aS'poi_email_propotion_to'
p8
aS'total_stock_value'
p9
aS'expenses'
p10
aS'deferred_income'
p11
aS'long_term_incentive'
p12
aS'from_poi_to_this_person'
p13
a.